target datalayout = "e-m:e-p270:32:32-p271:32:32-p272:64:64-i64:64-i128:128-f80:128-n8:16:32:64-S128"
target triple = "x86_64-pc-linux-gnu"

%struct.luaL_Reg = type { ptr, ptr }

@.str = private unnamed_addr constant [5 x i8] c"path\00", align 1
@.str.1 = private unnamed_addr constant [9 x i8] c"LUA_PATH\00", align 1
@.str.2 = private unnamed_addr constant [151 x i8] c"/usr/local/share/lua/5.5/?.lua;/usr/local/share/lua/5.5/?/init.lua;/usr/local/lib/lua/5.5/?.lua;/usr/local/lib/lua/5.5/?/init.lua;./?.lua;./?/init.lua\00", align 1
@.str.3 = private unnamed_addr constant [6 x i8] c"cpath\00", align 1
@.str.4 = private unnamed_addr constant [10 x i8] c"LUA_CPATH\00", align 1
@.str.5 = private unnamed_addr constant [69 x i8] c"/usr/local/lib/lua/5.5/?.so;/usr/local/lib/lua/5.5/loadall.so;./?.so\00", align 1
@.str.6 = private unnamed_addr constant [11 x i8] c"/\0A;\0A?\0A!\0A-\0A\00", align 1
@.str.7 = private unnamed_addr constant [7 x i8] c"config\00", align 1
@.str.8 = private unnamed_addr constant [8 x i8] c"_LOADED\00", align 1
@.str.9 = private unnamed_addr constant [7 x i8] c"loaded\00", align 1
@.str.10 = private unnamed_addr constant [9 x i8] c"_PRELOAD\00", align 1
@.str.11 = private unnamed_addr constant [8 x i8] c"preload\00", align 1
@ll_funcs = internal constant [2 x %struct.luaL_Reg] [%struct.luaL_Reg { ptr @.str.39, ptr @ll_require }, %struct.luaL_Reg zeroinitializer], align 16
@.str.12 = private unnamed_addr constant [7 x i8] c"_CLIBS\00", align 1
@.str.13 = private unnamed_addr constant [5 x i8] c"__gc\00", align 1
@.str.16 = private unnamed_addr constant [10 x i8] c"searchers\00", align 1
@createsearcherstable.searchers = internal constant [5 x ptr] [ptr @searcher_preload, ptr @searcher_Lua, ptr @searcher_C, ptr @searcher_Croot, ptr null], align 16

; Function Attrs: nounwind uwtable
define internal void @createsearcherstable(ptr noundef %0) #0 {
  %2 = alloca ptr, align 8
  %3 = alloca i32, align 4
  store ptr %0, ptr %2, align 8, !tbaa !4
  call void @llvm.lifetime.start.p0(i64 4, ptr %3) #6
  %4 = load ptr, ptr %2, align 8, !tbaa !4
  call void @lua_createtable(ptr noundef %4, i32 noundef 4, i32 noundef 0)
  store i32 0, ptr %3, align 4, !tbaa !9
  br label %5

5:                                                ; preds = %22, %1
  %6 = load i32, ptr %3, align 4, !tbaa !9
  %7 = sext i32 %6 to i64
  %8 = getelementptr inbounds [5 x ptr], ptr @createsearcherstable.searchers, i64 0, i64 %7
  %9 = load ptr, ptr %8, align 8, !tbaa !11
  %10 = icmp ne ptr %9, null
  br i1 %10, label %11, label %25

11:                                               ; preds = %5
  %12 = load ptr, ptr %2, align 8, !tbaa !4
  call void @lua_pushvalue(ptr noundef %12, i32 noundef -2)
  %13 = load ptr, ptr %2, align 8, !tbaa !4
  %14 = load i32, ptr %3, align 4, !tbaa !9
  %15 = sext i32 %14 to i64
  %16 = getelementptr inbounds [5 x ptr], ptr @createsearcherstable.searchers, i64 0, i64 %15
  %17 = load ptr, ptr %16, align 8, !tbaa !11
  call void @lua_pushcclosure(ptr noundef %13, ptr noundef %17, i32 noundef 1)
  %18 = load ptr, ptr %2, align 8, !tbaa !4
  %19 = load i32, ptr %3, align 4, !tbaa !9
  %20 = add nsw i32 %19, 1
  %21 = sext i32 %20 to i64
  call void @lua_rawseti(ptr noundef %18, i32 noundef -2, i64 noundef %21)
  br label %22

22:                                               ; preds = %11
  %23 = load i32, ptr %3, align 4, !tbaa !9
  %24 = add nsw i32 %23, 1
  store i32 %24, ptr %3, align 4, !tbaa !9
  br label %5

25:                                               ; preds = %5
  %26 = load ptr, ptr %2, align 8, !tbaa !4
  call void @lua_setfield(ptr noundef %26, i32 noundef -2, ptr noundef @.str.16)
  call void @llvm.lifetime.end.p0(i64 4, ptr %3) #6
  ret void
}

; Function Attrs: nounwind uwtable
define internal void @createclibstable(ptr noundef %0) #0 {
  %2 = alloca ptr, align 8
  store ptr %0, ptr %2, align 8, !tbaa !4
  %3 = load ptr, ptr %2, align 8, !tbaa !4
  %4 = call i32 @luaL_getsubtable(ptr noundef %3, i32 noundef -1001000, ptr noundef @.str.12)
  %5 = load ptr, ptr %2, align 8, !tbaa !4
  call void @lua_createtable(ptr noundef %5, i32 noundef 0, i32 noundef 1)
  %6 = load ptr, ptr %2, align 8, !tbaa !4
  call void @lua_pushcclosure(ptr noundef %6, ptr noundef @gctm, i32 noundef 0)
  %7 = load ptr, ptr %2, align 8, !tbaa !4
  call void @lua_setfield(ptr noundef %7, i32 noundef -2, ptr noundef @.str.13)
  %8 = load ptr, ptr %2, align 8, !tbaa !4
  %9 = call i32 @lua_setmetatable(ptr noundef %8, i32 noundef -2)
  ret void
}

; Function Attrs: nounwind uwtable
define dso_local i32 @luaopen_package(ptr noundef %0) #0 {
  %2 = alloca ptr, align 8
  store ptr %0, ptr %2, align 8, !tbaa !4
  %3 = load ptr, ptr %2, align 8, !tbaa !4
  call void @createclibstable(ptr noundef %3)
  %4 = load ptr, ptr %2, align 8, !tbaa !4
  call void @luaL_checkversion_(ptr noundef %4, double noundef 5.050000e+02, i64 noundef 136)
  %5 = load ptr, ptr %2, align 8, !tbaa !4
  call void @lua_createtable(ptr noundef %5, i32 noundef 0, i32 noundef 7)
  %6 = load ptr, ptr %2, align 8, !tbaa !4
  call void @luaL_setfuncs(ptr noundef %6, ptr noundef @pk_funcs, i32 noundef 0)
  %7 = load ptr, ptr %2, align 8, !tbaa !4
  call void @createsearcherstable(ptr noundef %7)
  %8 = load ptr, ptr %2, align 8, !tbaa !4
  call void @setpath(ptr noundef %8, ptr noundef @.str, ptr noundef @.str.1, ptr noundef @.str.2)
  %9 = load ptr, ptr %2, align 8, !tbaa !4
  call void @setpath(ptr noundef %9, ptr noundef @.str.3, ptr noundef @.str.4, ptr noundef @.str.5)
  %10 = load ptr, ptr %2, align 8, !tbaa !4
  %11 = call ptr @lua_pushstring(ptr noundef %10, ptr noundef @.str.6)
  %12 = load ptr, ptr %2, align 8, !tbaa !4
  call void @lua_setfield(ptr noundef %12, i32 noundef -2, ptr noundef @.str.7)
  %13 = load ptr, ptr %2, align 8, !tbaa !4
  %14 = call i32 @luaL_getsubtable(ptr noundef %13, i32 noundef -1001000, ptr noundef @.str.8)
  %15 = load ptr, ptr %2, align 8, !tbaa !4
  call void @lua_setfield(ptr noundef %15, i32 noundef -2, ptr noundef @.str.9)
  %16 = load ptr, ptr %2, align 8, !tbaa !4
  %17 = call i32 @luaL_getsubtable(ptr noundef %16, i32 noundef -1001000, ptr noundef @.str.10)
  %18 = load ptr, ptr %2, align 8, !tbaa !4
  call void @lua_setfield(ptr noundef %18, i32 noundef -2, ptr noundef @.str.11)
  %19 = load ptr, ptr %2, align 8, !tbaa !4
  %20 = call i32 @lua_rawgeti(ptr noundef %19, i32 noundef -1001000, i64 noundef 2)
  %21 = load ptr, ptr %2, align 8, !tbaa !4
  call void @lua_pushvalue(ptr noundef %21, i32 noundef -2)
  %22 = load ptr, ptr %2, align 8, !tbaa !4
  call void @luaL_setfuncs(ptr noundef %22, ptr noundef @ll_funcs, i32 noundef 1)
  %23 = load ptr, ptr %2, align 8, !tbaa !4
  call void @lua_settop(ptr noundef %23, i32 noundef -2)
  ret i32 1
}