; Function Attrs: nounwind uwtable
define dso_local noundef i32 @luaopen_package(ptr noundef %0) local_unnamed_addr #0 {
  %2 = tail call i32 @luaL_getsubtable(ptr noundef %0, i32 noundef -1001000, ptr noundef nonnull @.str.12) #7
  tail call void @lua_createtable(ptr noundef %0, i32 noundef 0, i32 noundef 1) #7
  tail call void @lua_pushcclosure(ptr noundef %0, ptr noundef nonnull @gctm, i32 noundef 0) #7
  tail call void @lua_setfield(ptr noundef %0, i32 noundef -2, ptr noundef nonnull @.str.13) #7
  %3 = tail call i32 @lua_setmetatable(ptr noundef %0, i32 noundef -2) #7
  tail call void @luaL_checkversion_(ptr noundef %0, double noundef 5.050000e+02, i64 noundef 136) #7
  tail call void @lua_createtable(ptr noundef %0, i32 noundef 0, i32 noundef 7) #7
  tail call void @luaL_setfuncs(ptr noundef %0, ptr noundef nonnull @pk_funcs, i32 noundef 0) #7
  tail call void @lua_createtable(ptr noundef %0, i32 noundef 4, i32 noundef 0) #7
  br label %4

4:                                                ; preds = %4, %1
  %indvars.iv.i = phi i64 [ 0, %1 ], [ %indvars.iv.next.i, %4 ]
  %5 = getelementptr inbounds nuw [5 x ptr], ptr @createsearcherstable.searchers, i64 0, i64 %indvars.iv.i
  tail call void @lua_pushvalue(ptr noundef %0, i32 noundef -2) #7
  %6 = load ptr, ptr %5, align 8, !tbaa !4
  tail call void @lua_pushcclosure(ptr noundef %0, ptr noundef %6, i32 noundef 1) #7
  %indvars.iv.next.i = add nuw nsw i64 %indvars.iv.i, 1
  tail call void @lua_rawseti(ptr noundef %0, i32 noundef -2, i64 noundef %indvars.iv.next.i) #7
  %.not.i = icmp eq i64 %indvars.iv.next.i, 4
  br i1 %.not.i, label %createsearcherstable.exit, label %4

createsearcherstable.exit:                        ; preds = %4
  tail call void @lua_setfield(ptr noundef %0, i32 noundef -2, ptr noundef nonnull @.str.16) #7
  tail call fastcc void @setpath(ptr noundef %0, ptr noundef nonnull @.str, ptr noundef nonnull @.str.1, ptr noundef nonnull @.str.2)
  tail call fastcc void @setpath(ptr noundef %0, ptr noundef nonnull @.str.3, ptr noundef nonnull @.str.4, ptr noundef nonnull @.str.5)
  %7 = tail call ptr @lua_pushstring(ptr noundef %0, ptr noundef nonnull @.str.6) #7
  tail call void @lua_setfield(ptr noundef %0, i32 noundef -2, ptr noundef nonnull @.str.7) #7
  %8 = tail call i32 @luaL_getsubtable(ptr noundef %0, i32 noundef -1001000, ptr noundef nonnull @.str.8) #7
  tail call void @lua_setfield(ptr noundef %0, i32 noundef -2, ptr noundef nonnull @.str.9) #7
  %9 = tail call i32 @luaL_getsubtable(ptr noundef %0, i32 noundef -1001000, ptr noundef nonnull @.str.10) #7
  tail call void @lua_setfield(ptr noundef %0, i32 noundef -2, ptr noundef nonnull @.str.11) #7
  %10 = tail call i32 @lua_rawgeti(ptr noundef %0, i32 noundef -1001000, i64 noundef 2) #7
  tail call void @lua_pushvalue(ptr noundef %0, i32 noundef -2) #7
  tail call void @luaL_setfuncs(ptr noundef %0, ptr noundef nonnull @ll_funcs, i32 noundef 1) #7
  tail call void @lua_settop(ptr noundef %0, i32 noundef -2) #7
  ret i32 1
}